; Function Attrs: nounwind uwtable
define internal noundef i32 @php_userstreamop_rewinddir(ptr nocapture noundef readonly %0, i64 %1, i32 %2, ptr nocapture readnone %3) #0 {
  %5 = alloca %struct._zval_struct, align 8
  %6 = alloca %struct._zval_struct, align 8
  %7 = getelementptr inbounds i8, ptr %0, i64 8
  %8 = load ptr, ptr %7, align 8
  %9 = tail call noalias ptr @_emalloc_40() #11
  store i32 1, ptr %9, align 4
  %10 = getelementptr inbounds i8, ptr %9, i64 4
  store i32 22, ptr %10, align 4
  %11 = getelementptr inbounds i8, ptr %9, i64 8
  store i64 0, ptr %11, align 8
  %12 = getelementptr inbounds i8, ptr %9, i64 16
  store i64 13, ptr %12, align 8
  %13 = getelementptr inbounds i8, ptr %9, i64 24
  tail call void @llvm.memcpy.p0.p0.i64(ptr noundef nonnull align 8 dereferenceable(13) %13, ptr noundef nonnull align 1 dereferenceable(13) @.str.97, i64 13, i1 false)
  %14 = getelementptr inbounds i8, ptr %9, i64 37
  store i8 0, ptr %14, align 1
  store ptr %9, ptr %5, align 8
  %15 = getelementptr inbounds i8, ptr %5, i64 8
  store i32 262, ptr %15, align 8
  %16 = getelementptr inbounds i8, ptr %8, i64 8
  %.val = load ptr, ptr %16, align 8
  %17 = call i32 @zend_call_method_if_exists(ptr noundef %.val, ptr noundef nonnull %9, ptr noundef nonnull %6, i32 noundef 0, ptr noundef null) #11
  call void @zval_ptr_dtor(ptr noundef nonnull %6) #11
  call void @zval_ptr_dtor(ptr noundef nonnull %5) #11
  ret i32 0
}